; Function Attrs: nounwind uwtable
define hidden ptr @luaM_saferealloc_(ptr noundef %0, ptr noundef %1, i64 noundef %2, i64 noundef %3) local_unnamed_addr #0 {
  %5 = getelementptr inbounds nuw i8, ptr %0, i64 24
  %6 = load ptr, ptr %5, align 8, !tbaa !9
  %7 = load ptr, ptr %6, align 8, !tbaa !22
  %8 = getelementptr inbounds nuw i8, ptr %6, i64 8
  %9 = load ptr, ptr %8, align 8, !tbaa !29
  %10 = tail call ptr %7(ptr noundef %9, ptr noundef %1, i64 noundef %2, i64 noundef %3) #6
  %11 = icmp eq ptr %10, null
  %12 = icmp ne i64 %3, 0
  %13 = and i1 %12, %11
  br i1 %13, label %14, label %17, !prof !30

14:                                               ; preds = %4
  %15 = tail call fastcc ptr @tryagain(ptr noundef nonnull %0, ptr noundef %1, i64 noundef %2, i64 noundef %3)
  %16 = icmp eq ptr %15, null
  br i1 %16, label %luaM_realloc_.exit, label %17

17:                                               ; preds = %14, %4
  %.017.i = phi ptr [ %15, %14 ], [ %10, %4 ]
  %.neg.i = sub i64 %2, %3
  %18 = getelementptr inbounds nuw i8, ptr %6, i64 24
  %19 = load i64, ptr %18, align 8, !tbaa !31
  %20 = add i64 %.neg.i, %19
  store i64 %20, ptr %18, align 8, !tbaa !31
  br label %luaM_realloc_.exit

luaM_realloc_.exit:                               ; preds = %14, %17
  %.0.i = phi ptr [ %.017.i, %17 ], [ null, %14 ]
  %21 = icmp eq ptr %.0.i, null
  %22 = and i1 %12, %21
  br i1 %22, label %23, label %24, !prof !30

23:                                               ; preds = %luaM_realloc_.exit
  tail call void @luaD_throw(ptr noundef nonnull %0, i32 noundef 4) #5
  unreachable

24:                                               ; preds = %luaM_realloc_.exit
  ret ptr %.0.i
}